target datalayout = "e-m:e-p270:32:32-p271:32:32-p272:64:64-i64:64-i128:128-f80:128-n8:16:32:64-S128"
target triple = "x86_64-pc-linux-gnu"

%union.stbcc__global_clumpid = type { %struct.anon }
%struct.anon = type { i32 }
%struct.st_stbcc_grid = type { i32, i32, i32, i32, i32, [1024 x [128 x i8]], [1024 x [1024 x i16]], [32 x [32 x %struct.stbcc__cluster]] }
%struct.stbcc__cluster = type { i16, i8, i8, [512 x %struct.stbcc__clump], [128 x %struct.stbcc__relative_clumpid] }
%struct.stbcc__clump = type { %union.stbcc__global_clumpid, i8, i8, i8, i8 }
%struct.stbcc__relative_clumpid = type { i16 }

; Function Attrs: nounwind uwtable
define void @stbcc__add_connections_to_adjacent_cluster_with_rebuild(ptr noundef %0, i32 noundef %1, i32 noundef %2, i32 noundef %3, i32 noundef %4) #0 {
  %6 = alloca ptr, align 8
  %7 = alloca i32, align 4
  %8 = alloca i32, align 4
  %9 = alloca i32, align 4
  %10 = alloca i32, align 4
  store ptr %0, ptr %6, align 8, !tbaa !3
  store i32 %1, ptr %7, align 4, !tbaa !8
  store i32 %2, ptr %8, align 4, !tbaa !8
  store i32 %3, ptr %9, align 4, !tbaa !8
  store i32 %4, ptr %10, align 4, !tbaa !8
  %11 = load i32, ptr %7, align 4, !tbaa !8
  %12 = icmp sge i32 %11, 0
  br i1 %12, label %13, label %50

13:                                               ; preds = %5
  %14 = load i32, ptr %7, align 4, !tbaa !8
  %15 = load ptr, ptr %6, align 8, !tbaa !3
  %16 = getelementptr inbounds nuw %struct.st_stbcc_grid, ptr %15, i32 0, i32 2
  %17 = load i32, ptr %16, align 4, !tbaa !36
  %18 = icmp slt i32 %14, %17
  br i1 %18, label %19, label %50

19:                                               ; preds = %13
  %20 = load i32, ptr %8, align 4, !tbaa !8
  %21 = icmp sge i32 %20, 0
  br i1 %21, label %22, label %50

22:                                               ; preds = %19
  %23 = load i32, ptr %8, align 4, !tbaa !8
  %24 = load ptr, ptr %6, align 8, !tbaa !3
  %25 = getelementptr inbounds nuw %struct.st_stbcc_grid, ptr %24, i32 0, i32 3
  %26 = load i32, ptr %25, align 4, !tbaa !38
  %27 = icmp slt i32 %23, %26
  br i1 %27, label %28, label %50

28:                                               ; preds = %22
  %29 = load ptr, ptr %6, align 8, !tbaa !3
  %30 = load i32, ptr %7, align 4, !tbaa !8
  %31 = load i32, ptr %8, align 4, !tbaa !8
  %32 = load i32, ptr %9, align 4, !tbaa !8
  %33 = load i32, ptr %10, align 4, !tbaa !8
  call void @stbcc__add_connections_to_adjacent_cluster(ptr noundef %29, i32 noundef %30, i32 noundef %31, i32 noundef %32, i32 noundef %33)
  %34 = load ptr, ptr %6, align 8, !tbaa !3
  %35 = getelementptr inbounds nuw %struct.st_stbcc_grid, ptr %34, i32 0, i32 7
  %36 = load i32, ptr %8, align 4, !tbaa !8
  %37 = sext i32 %36 to i64
  %38 = getelementptr inbounds [32 x [32 x %struct.stbcc__cluster]], ptr %35, i64 0, i64 %37
  %39 = load i32, ptr %7, align 4, !tbaa !8
  %40 = sext i32 %39 to i64
  %41 = getelementptr inbounds [32 x %struct.stbcc__cluster], ptr %38, i64 0, i64 %40
  %42 = getelementptr inbounds nuw %struct.stbcc__cluster, ptr %41, i32 0, i32 2
  %43 = load i8, ptr %42, align 1, !tbaa !35
  %44 = icmp ne i8 %43, 0
  br i1 %44, label %45, label %49

45:                                               ; preds = %28
  %46 = load ptr, ptr %6, align 8, !tbaa !3
  %47 = load i32, ptr %7, align 4, !tbaa !8
  %48 = load i32, ptr %8, align 4, !tbaa !8
  call void @stbcc__build_all_connections_for_cluster(ptr noundef %46, i32 noundef %47, i32 noundef %48)
  br label %49

49:                                               ; preds = %45, %28
  br label %50

50:                                               ; preds = %49, %22, %19, %13, %5
  ret void
}

; Function Attrs: nounwind uwtable
define void @stbcc_update_grid(ptr noundef %0, i32 noundef %1, i32 noundef %2, i32 noundef %3) #0 {
  %5 = alloca ptr, align 8
  %6 = alloca i32, align 4
  %7 = alloca i32, align 4
  %8 = alloca i32, align 4
  %9 = alloca i32, align 4
  %10 = alloca i32, align 4
  %11 = alloca i32, align 4
  store ptr %0, ptr %5, align 8, !tbaa !3
  store i32 %1, ptr %6, align 4, !tbaa !8
  store i32 %2, ptr %7, align 4, !tbaa !8
  store i32 %3, ptr %8, align 4, !tbaa !8
  call void @llvm.lifetime.start.p0(i64 4, ptr %9) #4
  call void @llvm.lifetime.start.p0(i64 4, ptr %10) #4
  %12 = load i32, ptr %8, align 4, !tbaa !8
  %13 = icmp ne i32 %12, 0
  br i1 %13, label %33, label %14

14:                                               ; preds = %4
  %15 = load ptr, ptr %5, align 8, !tbaa !3
  %16 = getelementptr inbounds nuw %struct.st_stbcc_grid, ptr %15, i32 0, i32 5
  %17 = load i32, ptr %7, align 4, !tbaa !8
  %18 = sext i32 %17 to i64
  %19 = getelementptr inbounds [1024 x [128 x i8]], ptr %16, i64 0, i64 %18
  %20 = load i32, ptr %6, align 4, !tbaa !8
  %21 = ashr i32 %20, 3
  %22 = sext i32 %21 to i64
  %23 = getelementptr inbounds [128 x i8], ptr %19, i64 0, i64 %22
  %24 = load i8, ptr %23, align 1, !tbaa !13
  %25 = zext i8 %24 to i32
  %26 = load i32, ptr %6, align 4, !tbaa !8
  %27 = and i32 %26, 7
  %28 = shl i32 1, %27
  %29 = and i32 %25, %28
  %30 = icmp ne i32 %29, 0
  br i1 %30, label %31, label %32

31:                                               ; preds = %14
  store i32 1, ptr %11, align 4
  br label %140

32:                                               ; preds = %14
  br label %52

33:                                               ; preds = %4
  %34 = load ptr, ptr %5, align 8, !tbaa !3
  %35 = getelementptr inbounds nuw %struct.st_stbcc_grid, ptr %34, i32 0, i32 5
  %36 = load i32, ptr %7, align 4, !tbaa !8
  %37 = sext i32 %36 to i64
  %38 = getelementptr inbounds [1024 x [128 x i8]], ptr %35, i64 0, i64 %37
  %39 = load i32, ptr %6, align 4, !tbaa !8
  %40 = ashr i32 %39, 3
  %41 = sext i32 %40 to i64
  %42 = getelementptr inbounds [128 x i8], ptr %38, i64 0, i64 %41
  %43 = load i8, ptr %42, align 1, !tbaa !13
  %44 = zext i8 %43 to i32
  %45 = load i32, ptr %6, align 4, !tbaa !8
  %46 = and i32 %45, 7
  %47 = shl i32 1, %46
  %48 = and i32 %44, %47
  %49 = icmp ne i32 %48, 0
  br i1 %49, label %51, label %50

50:                                               ; preds = %33
  store i32 1, ptr %11, align 4
  br label %140

51:                                               ; preds = %33
  br label %52

52:                                               ; preds = %51, %32
  %53 = load i32, ptr %6, align 4, !tbaa !8
  %54 = ashr i32 %53, 5
  store i32 %54, ptr %9, align 4, !tbaa !8
  %55 = load i32, ptr %7, align 4, !tbaa !8
  %56 = ashr i32 %55, 5
  store i32 %56, ptr %10, align 4, !tbaa !8
  %57 = load ptr, ptr %5, align 8, !tbaa !3
  %58 = load i32, ptr %9, align 4, !tbaa !8
  %59 = sub nsw i32 %58, 1
  %60 = load i32, ptr %10, align 4, !tbaa !8
  call void @stbcc__remove_connections_to_adjacent_cluster(ptr noundef %57, i32 noundef %59, i32 noundef %60, i32 noundef 1, i32 noundef 0)
  %61 = load ptr, ptr %5, align 8, !tbaa !3
  %62 = load i32, ptr %9, align 4, !tbaa !8
  %63 = add nsw i32 %62, 1
  %64 = load i32, ptr %10, align 4, !tbaa !8
  call void @stbcc__remove_connections_to_adjacent_cluster(ptr noundef %61, i32 noundef %63, i32 noundef %64, i32 noundef -1, i32 noundef 0)
  %65 = load ptr, ptr %5, align 8, !tbaa !3
  %66 = load i32, ptr %9, align 4, !tbaa !8
  %67 = load i32, ptr %10, align 4, !tbaa !8
  %68 = sub nsw i32 %67, 1
  call void @stbcc__remove_connections_to_adjacent_cluster(ptr noundef %65, i32 noundef %66, i32 noundef %68, i32 noundef 0, i32 noundef 1)
  %69 = load ptr, ptr %5, align 8, !tbaa !3
  %70 = load i32, ptr %9, align 4, !tbaa !8
  %71 = load i32, ptr %10, align 4, !tbaa !8
  %72 = add nsw i32 %71, 1
  call void @stbcc__remove_connections_to_adjacent_cluster(ptr noundef %69, i32 noundef %70, i32 noundef %72, i32 noundef 0, i32 noundef -1)
  %73 = load i32, ptr %8, align 4, !tbaa !8
  %74 = icmp ne i32 %73, 0
  br i1 %74, label %92, label %75

75:                                               ; preds = %52
  %76 = load i32, ptr %6, align 4, !tbaa !8
  %77 = and i32 %76, 7
  %78 = shl i32 1, %77
  %79 = load ptr, ptr %5, align 8, !tbaa !3
  %80 = getelementptr inbounds nuw %struct.st_stbcc_grid, ptr %79, i32 0, i32 5
  %81 = load i32, ptr %7, align 4, !tbaa !8
  %82 = sext i32 %81 to i64
  %83 = getelementptr inbounds [1024 x [128 x i8]], ptr %80, i64 0, i64 %82
  %84 = load i32, ptr %6, align 4, !tbaa !8
  %85 = ashr i32 %84, 3
  %86 = sext i32 %85 to i64
  %87 = getelementptr inbounds [128 x i8], ptr %83, i64 0, i64 %86
  %88 = load i8, ptr %87, align 1, !tbaa !13
  %89 = zext i8 %88 to i32
  %90 = or i32 %89, %78
  %91 = trunc i32 %90 to i8
  store i8 %91, ptr %87, align 1, !tbaa !13
  br label %110

92:                                               ; preds = %52
  %93 = load i32, ptr %6, align 4, !tbaa !8
  %94 = and i32 %93, 7
  %95 = shl i32 1, %94
  %96 = xor i32 %95, -1
  %97 = load ptr, ptr %5, align 8, !tbaa !3
  %98 = getelementptr inbounds nuw %struct.st_stbcc_grid, ptr %97, i32 0, i32 5
  %99 = load i32, ptr %7, align 4, !tbaa !8
  %100 = sext i32 %99 to i64
  %101 = getelementptr inbounds [1024 x [128 x i8]], ptr %98, i64 0, i64 %100
  %102 = load i32, ptr %6, align 4, !tbaa !8
  %103 = ashr i32 %102, 3
  %104 = sext i32 %103 to i64
  %105 = getelementptr inbounds [128 x i8], ptr %101, i64 0, i64 %104
  %106 = load i8, ptr %105, align 1, !tbaa !13
  %107 = zext i8 %106 to i32
  %108 = and i32 %107, %96
  %109 = trunc i32 %108 to i8
  store i8 %109, ptr %105, align 1, !tbaa !13
  br label %110

110:                                              ; preds = %92, %75
  %111 = load ptr, ptr %5, align 8, !tbaa !3
  %112 = load i32, ptr %9, align 4, !tbaa !8
  %113 = load i32, ptr %10, align 4, !tbaa !8
  call void @stbcc__build_clumps_for_cluster(ptr noundef %111, i32 noundef %112, i32 noundef %113)
  %114 = load ptr, ptr %5, align 8, !tbaa !3
  %115 = load i32, ptr %9, align 4, !tbaa !8
  %116 = load i32, ptr %10, align 4, !tbaa !8
  call void @stbcc__build_all_connections_for_cluster(ptr noundef %114, i32 noundef %115, i32 noundef %116)
  %117 = load ptr, ptr %5, align 8, !tbaa !3
  %118 = load i32, ptr %9, align 4, !tbaa !8
  %119 = sub nsw i32 %118, 1
  %120 = load i32, ptr %10, align 4, !tbaa !8
  call void @stbcc__add_connections_to_adjacent_cluster_with_rebuild(ptr noundef %117, i32 noundef %119, i32 noundef %120, i32 noundef 1, i32 noundef 0)
  %121 = load ptr, ptr %5, align 8, !tbaa !3
  %122 = load i32, ptr %9, align 4, !tbaa !8
  %123 = add nsw i32 %122, 1
  %124 = load i32, ptr %10, align 4, !tbaa !8
  call void @stbcc__add_connections_to_adjacent_cluster_with_rebuild(ptr noundef %121, i32 noundef %123, i32 noundef %124, i32 noundef -1, i32 noundef 0)
  %125 = load ptr, ptr %5, align 8, !tbaa !3
  %126 = load i32, ptr %9, align 4, !tbaa !8
  %127 = load i32, ptr %10, align 4, !tbaa !8
  %128 = sub nsw i32 %127, 1
  call void @stbcc__add_connections_to_adjacent_cluster_with_rebuild(ptr noundef %125, i32 noundef %126, i32 noundef %128, i32 noundef 0, i32 noundef 1)
  %129 = load ptr, ptr %5, align 8, !tbaa !3
  %130 = load i32, ptr %9, align 4, !tbaa !8
  %131 = load i32, ptr %10, align 4, !tbaa !8
  %132 = add nsw i32 %131, 1
  call void @stbcc__add_connections_to_adjacent_cluster_with_rebuild(ptr noundef %129, i32 noundef %130, i32 noundef %132, i32 noundef 0, i32 noundef -1)
  %133 = load ptr, ptr %5, align 8, !tbaa !3
  %134 = getelementptr inbounds nuw %struct.st_stbcc_grid, ptr %133, i32 0, i32 4
  %135 = load i32, ptr %134, align 4, !tbaa !44
  %136 = icmp ne i32 %135, 0
  br i1 %136, label %139, label %137

137:                                              ; preds = %110
  %138 = load ptr, ptr %5, align 8, !tbaa !3
  call void @stbcc__build_connected_components_for_clumps(ptr noundef %138)
  br label %139

139:                                              ; preds = %137, %110
  store i32 0, ptr %11, align 4
  br label %140

140:                                              ; preds = %139, %50, %31
  call void @llvm.lifetime.end.p0(i64 4, ptr %10) #4
  call void @llvm.lifetime.end.p0(i64 4, ptr %9) #4
  %141 = load i32, ptr %11, align 4
  switch i32 %141, label %143 [
    i32 0, label %142
    i32 1, label %142
  ]

142:                                              ; preds = %140, %140
  ret void

143:                                              ; preds = %140
  unreachable
}