; Function Attrs: nofree nosync nounwind memory(argmem: readwrite) uwtable
define void @stbcc_update_grid(ptr noundef captures(none) %0, i32 noundef %1, i32 noundef %2, i32 noundef %3) local_unnamed_addr #3 {
  %.not = icmp eq i32 %3, 0
  %5 = getelementptr inbounds nuw i8, ptr %0, i64 20
  %6 = sext i32 %2 to i64
  %7 = ashr i32 %1, 3
  %8 = sext i32 %7 to i64
  %9 = getelementptr inbounds [1024 x [128 x i8]], ptr %5, i64 0, i64 %6, i64 %8
  %10 = load i8, ptr %9, align 1, !tbaa !7
  %11 = zext i8 %10 to i32
  %12 = and i32 %1, 7
  %13 = shl nuw nsw i32 1, %12
  %14 = and i32 %13, %11
  %.not51 = icmp eq i32 %14, 0
  %15 = xor i1 %.not, %.not51
  br i1 %15, label %105, label %16

16:                                               ; preds = %4
  %17 = ashr i32 %1, 5
  %18 = ashr i32 %2, 5
  %19 = add nsw i32 %17, -1
  tail call void @stbcc__remove_connections_to_adjacent_cluster(ptr noundef nonnull %0, i32 noundef %19, i32 noundef %18, i32 noundef 1, i32 noundef 0)
  %20 = add nsw i32 %17, 1
  tail call void @stbcc__remove_connections_to_adjacent_cluster(ptr noundef nonnull %0, i32 noundef %20, i32 noundef %18, i32 noundef -1, i32 noundef 0)
  %21 = add nsw i32 %18, -1
  tail call void @stbcc__remove_connections_to_adjacent_cluster(ptr noundef nonnull %0, i32 noundef %17, i32 noundef %21, i32 noundef 0, i32 noundef 1)
  %22 = add nsw i32 %18, 1
  tail call void @stbcc__remove_connections_to_adjacent_cluster(ptr noundef nonnull %0, i32 noundef %17, i32 noundef %22, i32 noundef 0, i32 noundef -1)
  %23 = and i32 %1, 7
  %24 = shl nuw nsw i32 1, %23
  %25 = getelementptr inbounds nuw i8, ptr %0, i64 20
  %26 = sext i32 %2 to i64
  %27 = ashr i32 %1, 3
  %28 = sext i32 %27 to i64
  %29 = getelementptr inbounds [1024 x [128 x i8]], ptr %25, i64 0, i64 %26, i64 %28
  %30 = load i8, ptr %29, align 1, !tbaa !7
  %31 = trunc nuw i32 %24 to i8
  %32 = xor i8 %31, -1
  %33 = and i8 %30, %32
  %34 = or i8 %30, %31
  %.sink = select i1 %.not, i8 %34, i8 %33
  store i8 %.sink, ptr %29, align 1, !tbaa !7
  tail call void @stbcc__build_clumps_for_cluster(ptr noundef nonnull %0, i32 noundef %17, i32 noundef %18)
  tail call void @stbcc__build_all_connections_for_cluster(ptr noundef nonnull %0, i32 noundef %17, i32 noundef %18)
  %35 = icmp sgt i32 %17, 0
  br i1 %35, label %36, label %stbcc__add_connections_to_adjacent_cluster_with_rebuild.exit

36:                                               ; preds = %16
  %37 = getelementptr inbounds nuw i8, ptr %0, i64 8
  %38 = load i32, ptr %37, align 4, !tbaa !25
  %39 = icmp sle i32 %17, %38
  %40 = icmp sgt i32 %18, -1
  %or.cond.i = and i1 %40, %39
  br i1 %or.cond.i, label %41, label %stbcc__add_connections_to_adjacent_cluster_with_rebuild.exit.thread

41:                                               ; preds = %36
  %42 = getelementptr inbounds nuw i8, ptr %0, i64 12
  %43 = load i32, ptr %42, align 4, !tbaa !28
  %44 = icmp slt i32 %18, %43
  br i1 %44, label %45, label %stbcc__add_connections_to_adjacent_cluster_with_rebuild.exit.thread

45:                                               ; preds = %41
  tail call void @stbcc__add_connections_to_adjacent_cluster(ptr noundef nonnull %0, i32 noundef %19, i32 noundef %18, i32 noundef 1, i32 noundef 0)
  %46 = zext nneg i32 %18 to i64
  %47 = zext nneg i32 %19 to i64
  %.idx.i = mul nuw nsw i64 %46, 139392
  %.idx18.i = mul nuw nsw i64 %47, 4356
  %48 = getelementptr i8, ptr %0, i64 2228247
  %49 = getelementptr i8, ptr %48, i64 %.idx.i
  %50 = getelementptr i8, ptr %49, i64 %.idx18.i
  %51 = load i8, ptr %50, align 1, !tbaa !24
  %.not.i = icmp eq i8 %51, 0
  br i1 %.not.i, label %stbcc__add_connections_to_adjacent_cluster_with_rebuild.exit.thread, label %52

52:                                               ; preds = %45
  tail call void @stbcc__build_all_connections_for_cluster(ptr noundef nonnull %0, i32 noundef %19, i32 noundef %18)
  br label %stbcc__add_connections_to_adjacent_cluster_with_rebuild.exit.thread

stbcc__add_connections_to_adjacent_cluster_with_rebuild.exit: ; preds = %16
  %53 = icmp sgt i32 %17, -2
  br i1 %53, label %stbcc__add_connections_to_adjacent_cluster_with_rebuild.exit.thread, label %stbcc__add_connections_to_adjacent_cluster_with_rebuild.exit68

stbcc__add_connections_to_adjacent_cluster_with_rebuild.exit.thread: ; preds = %52, %45, %41, %36, %stbcc__add_connections_to_adjacent_cluster_with_rebuild.exit
  %54 = getelementptr inbounds nuw i8, ptr %0, i64 8
  %55 = load i32, ptr %54, align 4, !tbaa !25
  %56 = icmp slt i32 %20, %55
  %57 = icmp sgt i32 %18, -1
  %or.cond.i54 = and i1 %57, %56
  br i1 %or.cond.i54, label %58, label %stbcc__add_connections_to_adjacent_cluster_with_rebuild.exit58

58:                                               ; preds = %stbcc__add_connections_to_adjacent_cluster_with_rebuild.exit.thread
  %59 = getelementptr inbounds nuw i8, ptr %0, i64 12
  %60 = load i32, ptr %59, align 4, !tbaa !28
  %61 = icmp slt i32 %18, %60
  br i1 %61, label %62, label %stbcc__add_connections_to_adjacent_cluster_with_rebuild.exit58

62:                                               ; preds = %58
  tail call void @stbcc__add_connections_to_adjacent_cluster(ptr noundef nonnull %0, i32 noundef %20, i32 noundef %18, i32 noundef -1, i32 noundef 0)
  %63 = zext nneg i32 %18 to i64
  %64 = zext nneg i32 %20 to i64
  %.idx.i55 = mul nuw nsw i64 %63, 139392
  %.idx18.i56 = mul nuw nsw i64 %64, 4356
  %65 = getelementptr i8, ptr %0, i64 2228247
  %66 = getelementptr i8, ptr %65, i64 %.idx.i55
  %67 = getelementptr i8, ptr %66, i64 %.idx18.i56
  %68 = load i8, ptr %67, align 1, !tbaa !24
  %.not.i57 = icmp eq i8 %68, 0
  br i1 %.not.i57, label %stbcc__add_connections_to_adjacent_cluster_with_rebuild.exit58, label %69

69:                                               ; preds = %62
  tail call void @stbcc__build_all_connections_for_cluster(ptr noundef nonnull %0, i32 noundef %20, i32 noundef %18)
  br label %stbcc__add_connections_to_adjacent_cluster_with_rebuild.exit58

stbcc__add_connections_to_adjacent_cluster_with_rebuild.exit58: ; preds = %stbcc__add_connections_to_adjacent_cluster_with_rebuild.exit.thread, %58, %62, %69
  %70 = icmp sgt i32 %17, -1
  br i1 %70, label %71, label %stbcc__add_connections_to_adjacent_cluster_with_rebuild.exit68

71:                                               ; preds = %stbcc__add_connections_to_adjacent_cluster_with_rebuild.exit58
  %72 = load i32, ptr %54, align 4, !tbaa !25
  %73 = icmp slt i32 %17, %72
  %74 = icmp sgt i32 %18, 0
  %or.cond.i59 = and i1 %74, %73
  br i1 %or.cond.i59, label %75, label %86

75:                                               ; preds = %71
  %76 = getelementptr inbounds nuw i8, ptr %0, i64 12
  %77 = load i32, ptr %76, align 4, !tbaa !28
  %.not70 = icmp sgt i32 %18, %77
  br i1 %.not70, label %86, label %78

78:                                               ; preds = %75
  tail call void @stbcc__add_connections_to_adjacent_cluster(ptr noundef nonnull %0, i32 noundef %17, i32 noundef %21, i32 noundef 0, i32 noundef 1)
  %79 = zext nneg i32 %21 to i64
  %80 = zext nneg i32 %17 to i64
  %.idx.i60 = mul nuw nsw i64 %79, 139392
  %.idx18.i61 = mul nuw nsw i64 %80, 4356
  %81 = getelementptr i8, ptr %0, i64 2228247
  %82 = getelementptr i8, ptr %81, i64 %.idx.i60
  %83 = getelementptr i8, ptr %82, i64 %.idx18.i61
  %84 = load i8, ptr %83, align 1, !tbaa !24
  %.not.i62 = icmp eq i8 %84, 0
  br i1 %.not.i62, label %86, label %85

85:                                               ; preds = %78
  tail call void @stbcc__build_all_connections_for_cluster(ptr noundef nonnull %0, i32 noundef %17, i32 noundef %21)
  br label %86

86:                                               ; preds = %71, %75, %78, %85
  %87 = load i32, ptr %54, align 4, !tbaa !25
  %88 = icmp slt i32 %17, %87
  %89 = icmp sgt i32 %18, -2
  %or.cond.i64 = and i1 %89, %88
  br i1 %or.cond.i64, label %90, label %stbcc__add_connections_to_adjacent_cluster_with_rebuild.exit68

90:                                               ; preds = %86
  %91 = getelementptr inbounds nuw i8, ptr %0, i64 12
  %92 = load i32, ptr %91, align 4, !tbaa !28
  %93 = icmp slt i32 %22, %92
  br i1 %93, label %94, label %stbcc__add_connections_to_adjacent_cluster_with_rebuild.exit68

94:                                               ; preds = %90
  tail call void @stbcc__add_connections_to_adjacent_cluster(ptr noundef nonnull %0, i32 noundef %17, i32 noundef %22, i32 noundef 0, i32 noundef -1)
  %95 = zext nneg i32 %22 to i64
  %96 = zext nneg i32 %17 to i64
  %.idx.i65 = mul nuw nsw i64 %95, 139392
  %.idx18.i66 = mul nuw nsw i64 %96, 4356
  %97 = getelementptr i8, ptr %0, i64 2228247
  %98 = getelementptr i8, ptr %97, i64 %.idx.i65
  %99 = getelementptr i8, ptr %98, i64 %.idx18.i66
  %100 = load i8, ptr %99, align 1, !tbaa !24
  %.not.i67 = icmp eq i8 %100, 0
  br i1 %.not.i67, label %stbcc__add_connections_to_adjacent_cluster_with_rebuild.exit68, label %101

101:                                              ; preds = %94
  tail call void @stbcc__build_all_connections_for_cluster(ptr noundef nonnull %0, i32 noundef %17, i32 noundef %22)
  br label %stbcc__add_connections_to_adjacent_cluster_with_rebuild.exit68

stbcc__add_connections_to_adjacent_cluster_with_rebuild.exit68: ; preds = %stbcc__add_connections_to_adjacent_cluster_with_rebuild.exit58, %stbcc__add_connections_to_adjacent_cluster_with_rebuild.exit, %86, %90, %94, %101
  %102 = getelementptr inbounds nuw i8, ptr %0, i64 16
  %103 = load i32, ptr %102, align 4, !tbaa !34
  %.not53 = icmp eq i32 %103, 0
  br i1 %.not53, label %104, label %105

104:                                              ; preds = %stbcc__add_connections_to_adjacent_cluster_with_rebuild.exit68
  tail call void @stbcc__build_connected_components_for_clumps(ptr noundef nonnull %0)
  br label %105

105:                                              ; preds = %4, %stbcc__add_connections_to_adjacent_cluster_with_rebuild.exit68, %104
  ret void
}